target datalayout = "e-m:e-p270:32:32-p271:32:32-p272:64:64-i64:64-i128:128-f80:128-n8:16:32:64-S128"
target triple = "x86_64-unknown-linux-gnu"

@.str = private unnamed_addr constant [46 x i8] c"Index overflow in Quake II normal vector list\00", align 1

; Function Attrs: mustprogress uwtable
define hidden void @_ZN6Assimp3MD217LookupNormalIndexEhR10aiVector3tIfE(i8 noundef zeroext %iNormalIndex, ptr noundef nonnull align 4 dereferenceable(12) %vOut) #2 {
entry:
  %iNormalIndex.addr = alloca i8, align 1
  %vOut.addr = alloca ptr, align 8
  store i8 %iNormalIndex, ptr %iNormalIndex.addr, align 1
  store ptr %vOut, ptr %vOut.addr, align 8
  %0 = load i8, ptr %iNormalIndex.addr, align 1
  %conv = zext i8 %0 to i32
  %cmp = icmp sge i32 %conv, 162
  br i1 %cmp, label %if.then, label %if.end

if.then:                                          ; preds = %entry
  %call = call noundef ptr @_ZN6Assimp13DefaultLogger3getEv()
  call void @_ZN6Assimp6Logger4warnEPKc(ptr noundef nonnull align 8 dereferenceable(12) %call, ptr noundef @.str)
  store i8 -95, ptr %iNormalIndex.addr, align 1
  br label %if.end

if.end:                                           ; preds = %if.then, %entry
  %1 = load i8, ptr %iNormalIndex.addr, align 1
  %idxprom = zext i8 %1 to i64
  %arrayidx = getelementptr inbounds [162 x [3 x float]], ptr @_ZL11g_avNormals, i64 0, i64 %idxprom
  %2 = load ptr, ptr %vOut.addr, align 8
  call void @llvm.memcpy.p0.p0.i64(ptr align 4 %2, ptr align 4 %arrayidx, i64 12, i1 false)
  ret void
}