; Function Attrs: mustprogress uwtable
define hidden void @_ZN6Assimp3MD217LookupNormalIndexEhR10aiVector3tIfE(i8 noundef zeroext %iNormalIndex, ptr nocapture noundef nonnull writeonly align 4 dereferenceable(12) %vOut) local_unnamed_addr #0 {
entry:
  %cmp = icmp ugt i8 %iNormalIndex, -95
  br i1 %cmp, label %if.then, label %if.end

if.then:                                          ; preds = %entry
  %call = tail call noundef ptr @_ZN6Assimp13DefaultLogger3getEv()
  tail call void @_ZN6Assimp6Logger4warnEPKc(ptr noundef nonnull align 8 dereferenceable(12) %call, ptr noundef nonnull @.str)
  br label %if.end

if.end:                                           ; preds = %if.then, %entry
  %iNormalIndex.addr.0 = phi i8 [ -95, %if.then ], [ %iNormalIndex, %entry ]
  %idxprom = zext i8 %iNormalIndex.addr.0 to i64
  %arrayidx = getelementptr inbounds [162 x [3 x float]], ptr @_ZL11g_avNormals, i64 0, i64 %idxprom
  tail call void @llvm.memcpy.p0.p0.i64(ptr noundef nonnull align 4 dereferenceable(12) %vOut, ptr noundef nonnull align 4 dereferenceable(12) %arrayidx, i64 12, i1 false)
  ret void
}